; Function Attrs: mustprogress nofree norecurse nosync nounwind willreturn memory(read, argmem: readwrite, inaccessiblemem: none) uwtable
define hidden noundef zeroext i8 @_ZN4JSON4nextEv(ptr nocapture noundef nonnull align 8 dereferenceable(54) %0) local_unnamed_addr #4 align 2 {
  %2 = getelementptr inbounds i8, ptr %0, i64 24
  %3 = load ptr, ptr %2, align 8
  %4 = load i8, ptr %3, align 1
  %.not = icmp eq i8 %4, 0
  br i1 %.not, label %7, label %5

5:                                                ; preds = %1
  %6 = getelementptr inbounds i8, ptr %3, i64 1
  store ptr %6, ptr %2, align 8
  br label %7

7:                                                ; preds = %5, %1
  ret i8 %4
}